; Function Attrs: nounwind uwtable
define range(i32 -2147483647, -2147483648) i32 @BN_GF2m_poly2arr(ptr noundef %0, ptr noundef captures(none) %1, i32 noundef %2) local_unnamed_addr #0 {
  %4 = tail call i32 @BN_is_odd(ptr noundef %0) #5
  %.not = icmp eq i32 %4, 0
  br i1 %.not, label %39, label %5

5:                                                ; preds = %3
  %6 = getelementptr inbounds nuw i8, ptr %0, i64 8
  %7 = load i32, ptr %6, align 8, !tbaa !3
  %8 = icmp sgt i32 %7, 0
  br i1 %8, label %.lr.ph, label %._crit_edge.thread

.lr.ph:                                           ; preds = %5
  %9 = load ptr, ptr %0, align 8, !tbaa !10
  %10 = zext nneg i32 %7 to i64
  br label %11

11:                                               ; preds = %.lr.ph, %.loopexit
  %indvars.iv = phi i64 [ %10, %.lr.ph ], [ %indvars.iv.next, %.loopexit ]
  %.02637 = phi i32 [ 0, %.lr.ph ], [ %.1, %.loopexit ]
  %indvars.iv.next = add nsw i64 %indvars.iv, -1
  %12 = getelementptr inbounds nuw i64, ptr %9, i64 %indvars.iv.next
  %13 = load i64, ptr %12, align 8, !tbaa !11
  %.not30 = icmp eq i64 %13, 0
  br i1 %.not30, label %.loopexit, label %.preheader

.preheader:                                       ; preds = %11
  %indvars.iv.next.tr = trunc i64 %indvars.iv.next to i32
  %14 = shl i32 %indvars.iv.next.tr, 6
  br label %15

15:                                               ; preds = %.preheader, %25
  %.035 = phi i64 [ -9223372036854775808, %.preheader ], [ %26, %25 ]
  %.234 = phi i32 [ %.02637, %.preheader ], [ %.3, %25 ]
  %.02732 = phi i32 [ 63, %.preheader ], [ %27, %25 ]
  %16 = and i64 %.035, %13
  %.not31 = icmp eq i64 %16, 0
  br i1 %.not31, label %25, label %17

17:                                               ; preds = %15
  %18 = icmp slt i32 %.234, %2
  br i1 %18, label %19, label %23

19:                                               ; preds = %17
  %20 = add nuw nsw i32 %.02732, %14
  %21 = sext i32 %.234 to i64
  %22 = getelementptr inbounds i32, ptr %1, i64 %21
  store i32 %20, ptr %22, align 4, !tbaa !16
  br label %23

23:                                               ; preds = %19, %17
  %24 = add nsw i32 %.234, 1
  br label %25

25:                                               ; preds = %23, %15
  %.3 = phi i32 [ %24, %23 ], [ %.234, %15 ]
  %26 = lshr i64 %.035, 1
  %27 = add nsw i32 %.02732, -1
  %.not40 = icmp eq i32 %.02732, 0
  br i1 %.not40, label %.loopexit, label %15, !llvm.loop !21

.loopexit:                                        ; preds = %25, %11
  %.1 = phi i32 [ %.02637, %11 ], [ %.3, %25 ]
  %28 = icmp sgt i64 %indvars.iv, 1
  br i1 %28, label %11, label %._crit_edge, !llvm.loop !22

._crit_edge:                                      ; preds = %.loopexit
  %29 = icmp sgt i32 %.1, 0
  br i1 %29, label %30, label %._crit_edge.thread

30:                                               ; preds = %._crit_edge
  %31 = load i32, ptr %1, align 4, !tbaa !16
  %32 = icmp sgt i32 %31, 661
  br i1 %32, label %39, label %._crit_edge.thread

._crit_edge.thread:                               ; preds = %5, %30, %._crit_edge
  %.026.lcssa42 = phi i32 [ %.1, %30 ], [ %.1, %._crit_edge ], [ 0, %5 ]
  %33 = icmp slt i32 %.026.lcssa42, %2
  br i1 %33, label %34, label %37

34:                                               ; preds = %._crit_edge.thread
  %35 = sext i32 %.026.lcssa42 to i64
  %36 = getelementptr inbounds i32, ptr %1, i64 %35
  store i32 -1, ptr %36, align 4, !tbaa !16
  br label %37

37:                                               ; preds = %34, %._crit_edge.thread
  %38 = add nsw i32 %.026.lcssa42, 1
  br label %39

39:                                               ; preds = %30, %3, %37
  %.029 = phi i32 [ %38, %37 ], [ 0, %3 ], [ 0, %30 ]
  ret i32 %.029
}